target datalayout = "e-m:e-p270:32:32-p271:32:32-p272:64:64-i64:64-i128:128-f80:128-n8:16:32:64-S128"
target triple = "x86_64-pc-linux-gnu"

%struct.Vec_Int_t_ = type { i32, i32, ptr }
%struct.Gia_Man_t_ = type { ptr, ptr, i32, i32, i32, i32, ptr, ptr, i32, i32, i32, ptr, ptr, %struct.Vec_Int_t_, %struct.Vec_Int_t_, i32, i32, i32, %struct.Vec_Int_t_, ptr, ptr, ptr, i32, i32, i32, i32, ptr, ptr, ptr, ptr, ptr, i32, i32, ptr, i32, ptr, ptr, ptr, ptr, ptr, ptr, ptr, ptr, ptr, ptr, ptr, ptr, ptr, ptr, ptr, ptr, ptr, ptr, %struct.Vec_Int_t_, %struct.Vec_Int_t_, ptr, ptr, ptr, ptr, ptr, ptr, ptr, ptr, ptr, ptr, ptr, ptr, ptr, ptr, ptr, ptr, ptr, ptr, ptr, ptr, ptr, i32, float, float, ptr, ptr, i32, ptr, ptr, ptr, ptr, ptr, ptr, ptr, ptr, ptr, ptr, ptr, ptr, ptr, ptr, ptr, i64, i64, ptr, ptr, i32, i32, i32, i32, i32, i32, i32, i32, i32, i32, i32, i32, ptr, ptr, ptr, ptr, ptr, ptr, ptr, ptr, i32, i32, i32, ptr, i32, i32, ptr, ptr, ptr, ptr, ptr, ptr, i32, i32, ptr, %struct.Vec_Int_t_, %struct.Vec_Int_t_, %struct.Vec_Int_t_, ptr, ptr, ptr, i32, i32, i32, i32, ptr, ptr, ptr, ptr, ptr }
%struct.Vec_Wrd_t_ = type { i32, i32, ptr }

@.str.17 = private unnamed_addr constant [72 x i8] c"Number of failed patterns is %d (%8.4f %% of %d). The first one is %d.\0A\00", align 1

; Function Attrs: inlinehint nounwind uwtable
define internal i32 @Abc_TtCountOnes(i64 noundef %0) #3 {
  %2 = alloca i64, align 8
  store i64 %0, ptr %2, align 8, !tbaa !79
  %3 = load i64, ptr %2, align 8, !tbaa !79
  %4 = load i64, ptr %2, align 8, !tbaa !79
  %5 = lshr i64 %4, 1
  %6 = and i64 %5, 6148914691236517205
  %7 = sub i64 %3, %6
  store i64 %7, ptr %2, align 8, !tbaa !79
  %8 = load i64, ptr %2, align 8, !tbaa !79
  %9 = and i64 %8, 3689348814741910323
  %10 = load i64, ptr %2, align 8, !tbaa !79
  %11 = lshr i64 %10, 2
  %12 = and i64 %11, 3689348814741910323
  %13 = add i64 %9, %12
  store i64 %13, ptr %2, align 8, !tbaa !79
  %14 = load i64, ptr %2, align 8, !tbaa !79
  %15 = load i64, ptr %2, align 8, !tbaa !79
  %16 = lshr i64 %15, 4
  %17 = add i64 %14, %16
  %18 = and i64 %17, 1085102592571150095
  store i64 %18, ptr %2, align 8, !tbaa !79
  %19 = load i64, ptr %2, align 8, !tbaa !79
  %20 = load i64, ptr %2, align 8, !tbaa !79
  %21 = lshr i64 %20, 8
  %22 = add i64 %19, %21
  store i64 %22, ptr %2, align 8, !tbaa !79
  %23 = load i64, ptr %2, align 8, !tbaa !79
  %24 = load i64, ptr %2, align 8, !tbaa !79
  %25 = lshr i64 %24, 16
  %26 = add i64 %23, %25
  store i64 %26, ptr %2, align 8, !tbaa !79
  %27 = load i64, ptr %2, align 8, !tbaa !79
  %28 = load i64, ptr %2, align 8, !tbaa !79
  %29 = lshr i64 %28, 32
  %30 = add i64 %27, %29
  store i64 %30, ptr %2, align 8, !tbaa !79
  %31 = load i64, ptr %2, align 8, !tbaa !79
  %32 = and i64 %31, 255
  %33 = trunc i64 %32 to i32
  ret i32 %33
}

; Function Attrs: inlinehint nounwind uwtable
define internal i32 @Abc_Tt6FirstBit(i64 noundef %0) #3 {
  %2 = alloca i32, align 4
  %3 = alloca i64, align 8
  %4 = alloca i32, align 4
  %5 = alloca i32, align 4
  store i64 %0, ptr %3, align 8, !tbaa !79
  call void @llvm.lifetime.start.p0(i64 4, ptr %4) #13
  store i32 0, ptr %4, align 4, !tbaa !14
  %6 = load i64, ptr %3, align 8, !tbaa !79
  %7 = icmp eq i64 %6, 0
  br i1 %7, label %8, label %9

8:                                                ; preds = %1
  store i32 -1, ptr %2, align 4
  store i32 1, ptr %5, align 4
  br label %63

9:                                                ; preds = %1
  %10 = load i64, ptr %3, align 8, !tbaa !79
  %11 = and i64 %10, 4294967295
  %12 = icmp eq i64 %11, 0
  br i1 %12, label %13, label %18

13:                                               ; preds = %9
  %14 = load i32, ptr %4, align 4, !tbaa !14
  %15 = add nsw i32 %14, 32
  store i32 %15, ptr %4, align 4, !tbaa !14
  %16 = load i64, ptr %3, align 8, !tbaa !79
  %17 = lshr i64 %16, 32
  store i64 %17, ptr %3, align 8, !tbaa !79
  br label %18

18:                                               ; preds = %13, %9
  %19 = load i64, ptr %3, align 8, !tbaa !79
  %20 = and i64 %19, 65535
  %21 = icmp eq i64 %20, 0
  br i1 %21, label %22, label %27

22:                                               ; preds = %18
  %23 = load i32, ptr %4, align 4, !tbaa !14
  %24 = add nsw i32 %23, 16
  store i32 %24, ptr %4, align 4, !tbaa !14
  %25 = load i64, ptr %3, align 8, !tbaa !79
  %26 = lshr i64 %25, 16
  store i64 %26, ptr %3, align 8, !tbaa !79
  br label %27

27:                                               ; preds = %22, %18
  %28 = load i64, ptr %3, align 8, !tbaa !79
  %29 = and i64 %28, 255
  %30 = icmp eq i64 %29, 0
  br i1 %30, label %31, label %36

31:                                               ; preds = %27
  %32 = load i32, ptr %4, align 4, !tbaa !14
  %33 = add nsw i32 %32, 8
  store i32 %33, ptr %4, align 4, !tbaa !14
  %34 = load i64, ptr %3, align 8, !tbaa !79
  %35 = lshr i64 %34, 8
  store i64 %35, ptr %3, align 8, !tbaa !79
  br label %36

36:                                               ; preds = %31, %27
  %37 = load i64, ptr %3, align 8, !tbaa !79
  %38 = and i64 %37, 15
  %39 = icmp eq i64 %38, 0
  br i1 %39, label %40, label %45

40:                                               ; preds = %36
  %41 = load i32, ptr %4, align 4, !tbaa !14
  %42 = add nsw i32 %41, 4
  store i32 %42, ptr %4, align 4, !tbaa !14
  %43 = load i64, ptr %3, align 8, !tbaa !79
  %44 = lshr i64 %43, 4
  store i64 %44, ptr %3, align 8, !tbaa !79
  br label %45

45:                                               ; preds = %40, %36
  %46 = load i64, ptr %3, align 8, !tbaa !79
  %47 = and i64 %46, 3
  %48 = icmp eq i64 %47, 0
  br i1 %48, label %49, label %54

49:                                               ; preds = %45
  %50 = load i32, ptr %4, align 4, !tbaa !14
  %51 = add nsw i32 %50, 2
  store i32 %51, ptr %4, align 4, !tbaa !14
  %52 = load i64, ptr %3, align 8, !tbaa !79
  %53 = lshr i64 %52, 2
  store i64 %53, ptr %3, align 8, !tbaa !79
  br label %54

54:                                               ; preds = %49, %45
  %55 = load i64, ptr %3, align 8, !tbaa !79
  %56 = and i64 %55, 1
  %57 = icmp eq i64 %56, 0
  br i1 %57, label %58, label %61

58:                                               ; preds = %54
  %59 = load i32, ptr %4, align 4, !tbaa !14
  %60 = add nsw i32 %59, 1
  store i32 %60, ptr %4, align 4, !tbaa !14
  br label %61

61:                                               ; preds = %58, %54
  %62 = load i32, ptr %4, align 4, !tbaa !14
  store i32 %62, ptr %2, align 4
  store i32 1, ptr %5, align 4
  br label %63

63:                                               ; preds = %61, %8
  call void @llvm.lifetime.end.p0(i64 4, ptr %4) #13
  %64 = load i32, ptr %2, align 4
  ret i32 %64
}

; Function Attrs: inlinehint nounwind uwtable
define internal i32 @Abc_TtCountOnes2(i64 noundef %0) #3 {
  %2 = alloca i64, align 8
  store i64 %0, ptr %2, align 8, !tbaa !79
  %3 = load i64, ptr %2, align 8, !tbaa !79
  %4 = icmp ne i64 %3, 0
  br i1 %4, label %5, label %8

5:                                                ; preds = %1
  %6 = load i64, ptr %2, align 8, !tbaa !79
  %7 = call i32 @Abc_TtCountOnes(i64 noundef %6)
  br label %9

8:                                                ; preds = %1
  br label %9

9:                                                ; preds = %8, %5
  %10 = phi i32 [ %7, %5 ], [ 0, %8 ]
  ret i32 %10
}

; Function Attrs: inlinehint nounwind uwtable
define internal i32 @Vec_IntSize(ptr noundef %0) #3 {
  %2 = alloca ptr, align 8
  store ptr %0, ptr %2, align 8, !tbaa !16
  %3 = load ptr, ptr %2, align 8, !tbaa !16
  %4 = getelementptr inbounds nuw %struct.Vec_Int_t_, ptr %3, i32 0, i32 1
  %5 = load i32, ptr %4, align 4, !tbaa !25
  ret i32 %5
}

; Function Attrs: inlinehint nounwind uwtable
define internal i32 @Abc_TtFindFirstBit2(ptr noundef %0, i32 noundef %1) #3 {
  %3 = alloca i32, align 4
  %4 = alloca ptr, align 8
  %5 = alloca i32, align 4
  %6 = alloca i32, align 4
  %7 = alloca i32, align 4
  store ptr %0, ptr %4, align 8, !tbaa !30
  store i32 %1, ptr %5, align 4, !tbaa !14
  call void @llvm.lifetime.start.p0(i64 4, ptr %6) #13
  store i32 0, ptr %6, align 4, !tbaa !14
  br label %8

8:                                                ; preds = %30, %2
  %9 = load i32, ptr %6, align 4, !tbaa !14
  %10 = load i32, ptr %5, align 4, !tbaa !14
  %11 = icmp slt i32 %9, %10
  br i1 %11, label %12, label %33

12:                                               ; preds = %8
  %13 = load ptr, ptr %4, align 8, !tbaa !30
  %14 = load i32, ptr %6, align 4, !tbaa !14
  %15 = sext i32 %14 to i64
  %16 = getelementptr inbounds i64, ptr %13, i64 %15
  %17 = load i64, ptr %16, align 8, !tbaa !79
  %18 = icmp ne i64 %17, 0
  br i1 %18, label %19, label %29

19:                                               ; preds = %12
  %20 = load i32, ptr %6, align 4, !tbaa !14
  %21 = mul nsw i32 64, %20
  %22 = load ptr, ptr %4, align 8, !tbaa !30
  %23 = load i32, ptr %6, align 4, !tbaa !14
  %24 = sext i32 %23 to i64
  %25 = getelementptr inbounds i64, ptr %22, i64 %24
  %26 = load i64, ptr %25, align 8, !tbaa !79
  %27 = call i32 @Abc_Tt6FirstBit(i64 noundef %26)
  %28 = add nsw i32 %21, %27
  store i32 %28, ptr %3, align 4
  store i32 1, ptr %7, align 4
  br label %34

29:                                               ; preds = %12
  br label %30

30:                                               ; preds = %29
  %31 = load i32, ptr %6, align 4, !tbaa !14
  %32 = add nsw i32 %31, 1
  store i32 %32, ptr %6, align 4, !tbaa !14
  br label %8, !llvm.loop !94

33:                                               ; preds = %8
  store i32 -1, ptr %3, align 4
  store i32 1, ptr %7, align 4
  br label %34

34:                                               ; preds = %33, %19
  call void @llvm.lifetime.end.p0(i64 4, ptr %6) #13
  %35 = load i32, ptr %3, align 4
  ret i32 %35
}

; Function Attrs: inlinehint nounwind uwtable
define internal i32 @Abc_TtCountOnesVec(ptr noundef %0, i32 noundef %1) #3 {
  %3 = alloca ptr, align 8
  %4 = alloca i32, align 4
  %5 = alloca i32, align 4
  %6 = alloca i32, align 4
  store ptr %0, ptr %3, align 8, !tbaa !30
  store i32 %1, ptr %4, align 4, !tbaa !14
  call void @llvm.lifetime.start.p0(i64 4, ptr %5) #13
  call void @llvm.lifetime.start.p0(i64 4, ptr %6) #13
  store i32 0, ptr %6, align 4, !tbaa !14
  store i32 0, ptr %5, align 4, !tbaa !14
  br label %7

7:                                                ; preds = %20, %2
  %8 = load i32, ptr %5, align 4, !tbaa !14
  %9 = load i32, ptr %4, align 4, !tbaa !14
  %10 = icmp slt i32 %8, %9
  br i1 %10, label %11, label %23

11:                                               ; preds = %7
  %12 = load ptr, ptr %3, align 8, !tbaa !30
  %13 = load i32, ptr %5, align 4, !tbaa !14
  %14 = sext i32 %13 to i64
  %15 = getelementptr inbounds i64, ptr %12, i64 %14
  %16 = load i64, ptr %15, align 8, !tbaa !79
  %17 = call i32 @Abc_TtCountOnes2(i64 noundef %16)
  %18 = load i32, ptr %6, align 4, !tbaa !14
  %19 = add nsw i32 %18, %17
  store i32 %19, ptr %6, align 4, !tbaa !14
  br label %20

20:                                               ; preds = %11
  %21 = load i32, ptr %5, align 4, !tbaa !14
  %22 = add nsw i32 %21, 1
  store i32 %22, ptr %5, align 4, !tbaa !14
  br label %7, !llvm.loop !93

23:                                               ; preds = %7
  %24 = load i32, ptr %6, align 4, !tbaa !14
  call void @llvm.lifetime.end.p0(i64 4, ptr %6) #13
  call void @llvm.lifetime.end.p0(i64 4, ptr %5) #13
  ret i32 %24
}

; Function Attrs: inlinehint nounwind uwtable
define internal void @Abc_TtOrXor(ptr noundef %0, ptr noundef %1, ptr noundef %2, i32 noundef %3) #3 {
  %5 = alloca ptr, align 8
  %6 = alloca ptr, align 8
  %7 = alloca ptr, align 8
  %8 = alloca i32, align 4
  %9 = alloca i32, align 4
  store ptr %0, ptr %5, align 8, !tbaa !30
  store ptr %1, ptr %6, align 8, !tbaa !30
  store ptr %2, ptr %7, align 8, !tbaa !30
  store i32 %3, ptr %8, align 4, !tbaa !14
  call void @llvm.lifetime.start.p0(i64 4, ptr %9) #13
  store i32 0, ptr %9, align 4, !tbaa !14
  br label %10

10:                                               ; preds = %32, %4
  %11 = load i32, ptr %9, align 4, !tbaa !14
  %12 = load i32, ptr %8, align 4, !tbaa !14
  %13 = icmp slt i32 %11, %12
  br i1 %13, label %14, label %35

14:                                               ; preds = %10
  %15 = load ptr, ptr %6, align 8, !tbaa !30
  %16 = load i32, ptr %9, align 4, !tbaa !14
  %17 = sext i32 %16 to i64
  %18 = getelementptr inbounds i64, ptr %15, i64 %17
  %19 = load i64, ptr %18, align 8, !tbaa !79
  %20 = load ptr, ptr %7, align 8, !tbaa !30
  %21 = load i32, ptr %9, align 4, !tbaa !14
  %22 = sext i32 %21 to i64
  %23 = getelementptr inbounds i64, ptr %20, i64 %22
  %24 = load i64, ptr %23, align 8, !tbaa !79
  %25 = xor i64 %19, %24
  %26 = load ptr, ptr %5, align 8, !tbaa !30
  %27 = load i32, ptr %9, align 4, !tbaa !14
  %28 = sext i32 %27 to i64
  %29 = getelementptr inbounds i64, ptr %26, i64 %28
  %30 = load i64, ptr %29, align 8, !tbaa !79
  %31 = or i64 %30, %25
  store i64 %31, ptr %29, align 8, !tbaa !79
  br label %32

32:                                               ; preds = %14
  %33 = load i32, ptr %9, align 4, !tbaa !14
  %34 = add nsw i32 %33, 1
  store i32 %34, ptr %9, align 4, !tbaa !14
  br label %10, !llvm.loop !92

35:                                               ; preds = %10
  call void @llvm.lifetime.end.p0(i64 4, ptr %9) #13
  ret void
}

; Function Attrs: inlinehint nounwind uwtable
define internal ptr @Vec_WrdEntryP(ptr noundef %0, i32 noundef %1) #3 {
  %3 = alloca ptr, align 8
  %4 = alloca i32, align 4
  store ptr %0, ptr %3, align 8, !tbaa !71
  store i32 %1, ptr %4, align 4, !tbaa !14
  %5 = load ptr, ptr %3, align 8, !tbaa !71
  %6 = getelementptr inbounds nuw %struct.Vec_Wrd_t_, ptr %5, i32 0, i32 2
  %7 = load ptr, ptr %6, align 8, !tbaa !78
  %8 = load i32, ptr %4, align 4, !tbaa !14
  %9 = sext i32 %8 to i64
  %10 = getelementptr inbounds i64, ptr %7, i64 %9
  ret ptr %10
}

; Function Attrs: inlinehint nounwind uwtable
define internal i32 @Gia_ManCoNum(ptr noundef %0) #3 {
  %2 = alloca ptr, align 8
  store ptr %0, ptr %2, align 8, !tbaa !34
  %3 = load ptr, ptr %2, align 8, !tbaa !34
  %4 = getelementptr inbounds nuw %struct.Gia_Man_t_, ptr %3, i32 0, i32 12
  %5 = load ptr, ptr %4, align 8, !tbaa !58
  %6 = call i32 @Vec_IntSize(ptr noundef %5)
  ret i32 %6
}

; Function Attrs: inlinehint nounwind uwtable
define internal i32 @Vec_WrdSize(ptr noundef %0) #3 {
  %2 = alloca ptr, align 8
  store ptr %0, ptr %2, align 8, !tbaa !71
  %3 = load ptr, ptr %2, align 8, !tbaa !71
  %4 = getelementptr inbounds nuw %struct.Vec_Wrd_t_, ptr %3, i32 0, i32 1
  %5 = load i32, ptr %4, align 4, !tbaa !76
  ret i32 %5
}

; Function Attrs: nounwind uwtable
define i32 @Gia_ManSimEvalOne(ptr noundef %0, ptr noundef %1, ptr noundef %2) #0 {
  %4 = alloca ptr, align 8
  %5 = alloca ptr, align 8
  %6 = alloca ptr, align 8
  %7 = alloca i32, align 4
  %8 = alloca i32, align 4
  %9 = alloca i32, align 4
  %10 = alloca ptr, align 8
  %11 = alloca ptr, align 8
  %12 = alloca ptr, align 8
  store ptr %0, ptr %4, align 8, !tbaa !34
  store ptr %1, ptr %5, align 8, !tbaa !71
  store ptr %2, ptr %6, align 8, !tbaa !71
  call void @llvm.lifetime.start.p0(i64 4, ptr %7) #13
  call void @llvm.lifetime.start.p0(i64 4, ptr %8) #13
  store i32 0, ptr %8, align 4, !tbaa !14
  call void @llvm.lifetime.start.p0(i64 4, ptr %9) #13
  %13 = load ptr, ptr %5, align 8, !tbaa !71
  %14 = call i32 @Vec_WrdSize(ptr noundef %13)
  %15 = load ptr, ptr %4, align 8, !tbaa !34
  %16 = call i32 @Gia_ManCoNum(ptr noundef %15)
  %17 = sdiv i32 %14, %16
  store i32 %17, ptr %9, align 4, !tbaa !14
  call void @llvm.lifetime.start.p0(i64 8, ptr %10) #13
  %18 = load i32, ptr %9, align 4, !tbaa !14
  %19 = sext i32 %18 to i64
  %20 = call noalias ptr @calloc(i64 noundef %19, i64 noundef 8) #16
  store ptr %20, ptr %10, align 8, !tbaa !30
  store i32 0, ptr %7, align 4, !tbaa !14
  br label %21

21:                                               ; preds = %41, %3
  %22 = load i32, ptr %7, align 4, !tbaa !14
  %23 = load ptr, ptr %4, align 8, !tbaa !34
  %24 = call i32 @Gia_ManCoNum(ptr noundef %23)
  %25 = icmp slt i32 %22, %24
  br i1 %25, label %26, label %44

26:                                               ; preds = %21
  call void @llvm.lifetime.start.p0(i64 8, ptr %11) #13
  %27 = load ptr, ptr %5, align 8, !tbaa !71
  %28 = load i32, ptr %7, align 4, !tbaa !14
  %29 = load i32, ptr %9, align 4, !tbaa !14
  %30 = mul nsw i32 %28, %29
  %31 = call ptr @Vec_WrdEntryP(ptr noundef %27, i32 noundef %30)
  store ptr %31, ptr %11, align 8, !tbaa !30
  call void @llvm.lifetime.start.p0(i64 8, ptr %12) #13
  %32 = load ptr, ptr %6, align 8, !tbaa !71
  %33 = load i32, ptr %7, align 4, !tbaa !14
  %34 = load i32, ptr %9, align 4, !tbaa !14
  %35 = mul nsw i32 %33, %34
  %36 = call ptr @Vec_WrdEntryP(ptr noundef %32, i32 noundef %35)
  store ptr %36, ptr %12, align 8, !tbaa !30
  %37 = load ptr, ptr %10, align 8, !tbaa !30
  %38 = load ptr, ptr %12, align 8, !tbaa !30
  %39 = load ptr, ptr %11, align 8, !tbaa !30
  %40 = load i32, ptr %9, align 4, !tbaa !14
  call void @Abc_TtOrXor(ptr noundef %37, ptr noundef %38, ptr noundef %39, i32 noundef %40)
  call void @llvm.lifetime.end.p0(i64 8, ptr %12) #13
  call void @llvm.lifetime.end.p0(i64 8, ptr %11) #13
  br label %41

41:                                               ; preds = %26
  %42 = load i32, ptr %7, align 4, !tbaa !14
  %43 = add nsw i32 %42, 1
  store i32 %43, ptr %7, align 4, !tbaa !14
  br label %21, !llvm.loop !91

44:                                               ; preds = %21
  %45 = load ptr, ptr %10, align 8, !tbaa !30
  %46 = load i32, ptr %9, align 4, !tbaa !14
  %47 = call i32 @Abc_TtCountOnesVec(ptr noundef %45, i32 noundef %46)
  store i32 %47, ptr %8, align 4, !tbaa !14
  %48 = load i32, ptr %8, align 4, !tbaa !14
  %49 = load i32, ptr %8, align 4, !tbaa !14
  %50 = sitofp i32 %49 to double
  %51 = fmul double 1.000000e+02, %50
  %52 = load i32, ptr %9, align 4, !tbaa !14
  %53 = mul nsw i32 64, %52
  %54 = sitofp i32 %53 to double
  %55 = fdiv double %51, %54
  %56 = load i32, ptr %9, align 4, !tbaa !14
  %57 = mul nsw i32 64, %56
  %58 = load ptr, ptr %10, align 8, !tbaa !30
  %59 = load i32, ptr %9, align 4, !tbaa !14
  %60 = call i32 @Abc_TtFindFirstBit2(ptr noundef %58, i32 noundef %59)
  %61 = call i32 (ptr, ...) @printf(ptr noundef @.str.17, i32 noundef %48, double noundef %55, i32 noundef %57, i32 noundef %60)
  %62 = load ptr, ptr %10, align 8, !tbaa !30
  %63 = icmp ne ptr %62, null
  br i1 %63, label %64, label %66

64:                                               ; preds = %44
  %65 = load ptr, ptr %10, align 8, !tbaa !30
  call void @free(ptr noundef %65) #13
  store ptr null, ptr %10, align 8, !tbaa !30
  br label %67

66:                                               ; preds = %44
  br label %67

67:                                               ; preds = %66, %64
  %68 = load i32, ptr %8, align 4, !tbaa !14
  call void @llvm.lifetime.end.p0(i64 8, ptr %10) #13
  call void @llvm.lifetime.end.p0(i64 4, ptr %9) #13
  call void @llvm.lifetime.end.p0(i64 4, ptr %8) #13
  call void @llvm.lifetime.end.p0(i64 4, ptr %7) #13
  ret i32 %68
}