; Function Attrs: nounwind uwtable
define i32 @Gia_ManSimEvalOne(ptr noundef readonly captures(none) %0, ptr noundef readonly captures(none) %1, ptr noundef readonly captures(none) %2) local_unnamed_addr #0 {
  %4 = getelementptr i8, ptr %1, i64 4
  %.val = load i32, ptr %4, align 4, !tbaa !60
  %5 = getelementptr i8, ptr %0, i64 72
  %.val27 = load ptr, ptr %5, align 8, !tbaa !50
  %6 = getelementptr i8, ptr %.val27, i64 4
  %.val27.val = load i32, ptr %6, align 4, !tbaa !13
  %7 = sdiv i32 %.val, %.val27.val
  %8 = sext i32 %7 to i64
  %9 = tail call noalias ptr @calloc(i64 noundef %8, i64 noundef 8) #26
  %10 = icmp sgt i32 %.val27.val, 0
  br i1 %10, label %.lr.ph, label %._crit_edge

.lr.ph:                                           ; preds = %3
  %11 = getelementptr i8, ptr %1, i64 8
  %.val29 = load ptr, ptr %11, align 8, !tbaa !59
  %12 = getelementptr i8, ptr %2, i64 8
  %.val30 = load ptr, ptr %12, align 8, !tbaa !59
  %13 = icmp sgt i32 %7, 0
  %wide.trip.count.i = zext i32 %7 to i64
  br i1 %13, label %.lr.ph.preheader.i.us.preheader, label %Abc_TtFindFirstBit2.exit

.lr.ph.preheader.i.us.preheader:                  ; preds = %.lr.ph
  %wide.trip.count = zext nneg i32 %.val27.val to i64
  br label %.lr.ph.preheader.i.us

.lr.ph.preheader.i.us:                            ; preds = %.lr.ph.preheader.i.us.preheader, %Abc_TtOrXor.exit.loopexit.us
  %indvars.iv = phi i64 [ 0, %.lr.ph.preheader.i.us.preheader ], [ %indvars.iv.next, %Abc_TtOrXor.exit.loopexit.us ]
  %14 = mul nuw nsw i64 %indvars.iv, %wide.trip.count.i
  %15 = getelementptr inbounds nuw i64, ptr %.val29, i64 %14
  %16 = getelementptr inbounds nuw i64, ptr %.val30, i64 %14
  br label %.lr.ph.i.us

.lr.ph.i.us:                                      ; preds = %.lr.ph.i.us, %.lr.ph.preheader.i.us
  %indvars.iv.i.us = phi i64 [ 0, %.lr.ph.preheader.i.us ], [ %indvars.iv.next.i.us, %.lr.ph.i.us ]
  %17 = getelementptr inbounds nuw i64, ptr %16, i64 %indvars.iv.i.us
  %18 = load i64, ptr %17, align 8, !tbaa !62
  %19 = getelementptr inbounds nuw i64, ptr %15, i64 %indvars.iv.i.us
  %20 = load i64, ptr %19, align 8, !tbaa !62
  %21 = xor i64 %20, %18
  %22 = getelementptr inbounds nuw i64, ptr %9, i64 %indvars.iv.i.us
  %23 = load i64, ptr %22, align 8, !tbaa !62
  %24 = or i64 %23, %21
  store i64 %24, ptr %22, align 8, !tbaa !62
  %indvars.iv.next.i.us = add nuw nsw i64 %indvars.iv.i.us, 1
  %exitcond.not.i.us = icmp eq i64 %indvars.iv.next.i.us, %wide.trip.count.i
  br i1 %exitcond.not.i.us, label %Abc_TtOrXor.exit.loopexit.us, label %.lr.ph.i.us, !llvm.loop !78

Abc_TtOrXor.exit.loopexit.us:                     ; preds = %.lr.ph.i.us
  %indvars.iv.next = add nuw nsw i64 %indvars.iv, 1
  %exitcond.not = icmp eq i64 %indvars.iv.next, %wide.trip.count
  br i1 %exitcond.not, label %._crit_edge, label %.lr.ph.preheader.i.us, !llvm.loop !79

._crit_edge:                                      ; preds = %Abc_TtOrXor.exit.loopexit.us, %3
  %25 = icmp sgt i32 %7, 0
  br i1 %25, label %.lr.ph.preheader.i31, label %Abc_TtFindFirstBit2.exit

.lr.ph.preheader.i31:                             ; preds = %._crit_edge
  %wide.trip.count.i32 = zext nneg i32 %7 to i64
  br label %.lr.ph.i33

.lr.ph.i33:                                       ; preds = %Abc_TtCountOnes2.exit.i, %.lr.ph.preheader.i31
  %indvars.iv.i34 = phi i64 [ 0, %.lr.ph.preheader.i31 ], [ %indvars.iv.next.i35, %Abc_TtCountOnes2.exit.i ]
  %.08.i = phi i32 [ 0, %.lr.ph.preheader.i31 ], [ %48, %Abc_TtCountOnes2.exit.i ]
  %26 = getelementptr inbounds nuw i64, ptr %9, i64 %indvars.iv.i34
  %27 = load i64, ptr %26, align 8, !tbaa !62
  %.not.i.i = icmp eq i64 %27, 0
  br i1 %.not.i.i, label %Abc_TtCountOnes2.exit.i, label %28

28:                                               ; preds = %.lr.ph.i33
  %29 = lshr i64 %27, 1
  %30 = and i64 %29, 6148914691236517205
  %31 = sub i64 %27, %30
  %32 = and i64 %31, 3689348814741910323
  %33 = lshr i64 %31, 2
  %34 = and i64 %33, 3689348814741910323
  %35 = add nuw nsw i64 %34, %32
  %36 = lshr i64 %35, 4
  %37 = add nuw nsw i64 %36, %35
  %38 = and i64 %37, 1085102592571150095
  %39 = lshr i64 %38, 8
  %40 = add nuw nsw i64 %39, %38
  %41 = lshr i64 %40, 16
  %42 = add nuw nsw i64 %41, %40
  %43 = lshr i64 %42, 32
  %44 = add nuw nsw i64 %43, %42
  %45 = trunc i64 %44 to i32
  %46 = and i32 %45, 255
  br label %Abc_TtCountOnes2.exit.i

Abc_TtCountOnes2.exit.i:                          ; preds = %28, %.lr.ph.i33
  %47 = phi i32 [ %46, %28 ], [ 0, %.lr.ph.i33 ]
  %48 = add nuw nsw i32 %47, %.08.i
  %indvars.iv.next.i35 = add nuw nsw i64 %indvars.iv.i34, 1
  %exitcond.not.i36 = icmp eq i64 %indvars.iv.next.i35, %wide.trip.count.i32
  br i1 %exitcond.not.i36, label %Abc_TtCountOnesVec.exit, label %.lr.ph.i33, !llvm.loop !80

Abc_TtCountOnesVec.exit:                          ; preds = %Abc_TtCountOnes2.exit.i
  %49 = uitofp nneg i32 %48 to double
  %50 = fmul double %49, 1.000000e+02
  %51 = shl nsw i32 %7, 6
  %52 = sitofp i32 %51 to double
  %53 = fdiv double %50, %52
  br label %.lr.ph.i40

.lr.ph.i40:                                       ; preds = %81, %Abc_TtCountOnesVec.exit
  %indvars.iv.i41 = phi i64 [ 0, %Abc_TtCountOnesVec.exit ], [ %indvars.iv.next.i42, %81 ]
  %54 = getelementptr inbounds nuw i64, ptr %9, i64 %indvars.iv.i41
  %55 = load i64, ptr %54, align 8, !tbaa !62
  %.not.i = icmp eq i64 %55, 0
  br i1 %.not.i, label %81, label %Abc_TtFindFirstBit2.exit.thread

Abc_TtFindFirstBit2.exit.thread:                  ; preds = %.lr.ph.i40
  %56 = trunc nuw nsw i64 %indvars.iv.i41 to i32
  %57 = shl nsw i32 %56, 6
  %58 = and i64 %55, 4294967295
  %59 = icmp eq i64 %58, 0
  %60 = lshr exact i64 %55, 32
  %.020.i.i = select i1 %59, i64 %60, i64 %55
  %.0.i.i = select i1 %59, i32 32, i32 0
  %61 = and i64 %.020.i.i, 65535
  %62 = icmp eq i64 %61, 0
  %63 = or disjoint i32 %.0.i.i, 16
  %64 = lshr exact i64 %.020.i.i, 16
  %.121.i.i = select i1 %62, i64 %64, i64 %.020.i.i
  %.1.i.i = select i1 %62, i32 %63, i32 %.0.i.i
  %65 = and i64 %.121.i.i, 255
  %66 = icmp eq i64 %65, 0
  %67 = or disjoint i32 %.1.i.i, 8
  %68 = lshr exact i64 %.121.i.i, 8
  %.222.i.i = select i1 %66, i64 %68, i64 %.121.i.i
  %.2.i.i = select i1 %66, i32 %67, i32 %.1.i.i
  %69 = and i64 %.222.i.i, 15
  %70 = icmp eq i64 %69, 0
  %71 = or disjoint i32 %.2.i.i, 4
  %72 = lshr exact i64 %.222.i.i, 4
  %.323.i.i = select i1 %70, i64 %72, i64 %.222.i.i
  %.3.i.i = select i1 %70, i32 %71, i32 %.2.i.i
  %73 = and i64 %.323.i.i, 3
  %74 = icmp eq i64 %73, 0
  %75 = add nuw nsw i32 %.3.i.i, 2
  %76 = lshr exact i64 %.323.i.i, 2
  %.424.i.i = select i1 %74, i64 %76, i64 %.323.i.i
  %.4.i.i = select i1 %74, i32 %75, i32 %.3.i.i
  %77 = trunc i64 %.424.i.i to i32
  %78 = and i32 %77, 1
  %79 = xor i32 %78, 1
  %.5.i.i = add i32 %.4.i.i, %57
  %80 = add i32 %.5.i.i, %79
  br label %.sink.split

81:                                               ; preds = %.lr.ph.i40
  %indvars.iv.next.i42 = add nuw nsw i64 %indvars.iv.i41, 1
  %exitcond.not.i43 = icmp eq i64 %indvars.iv.next.i42, %wide.trip.count.i32
  br i1 %exitcond.not.i43, label %.sink.split, label %.lr.ph.i40, !llvm.loop !81

Abc_TtFindFirstBit2.exit:                         ; preds = %.lr.ph, %._crit_edge
  %82 = shl nsw i32 %7, 6
  %83 = sitofp i32 %82 to double
  %84 = fdiv double 0.000000e+00, %83
  %85 = tail call i32 (ptr, ...) @printf(ptr noundef nonnull dereferenceable(1) @.str.17, i32 noundef 0, double noundef %84, i32 noundef %82, i32 noundef -1)
  %.not = icmp eq ptr %9, null
  br i1 %.not, label %88, label %87

.sink.split:                                      ; preds = %81, %Abc_TtFindFirstBit2.exit.thread
  %.sink = phi i32 [ %80, %Abc_TtFindFirstBit2.exit.thread ], [ -1, %81 ]
  %86 = tail call i32 (ptr, ...) @printf(ptr noundef nonnull dereferenceable(1) @.str.17, i32 noundef %48, double noundef %53, i32 noundef %51, i32 noundef %.sink)
  br label %87

87:                                               ; preds = %.sink.split, %Abc_TtFindFirstBit2.exit
  %.0.lcssa.i4549 = phi i32 [ 0, %Abc_TtFindFirstBit2.exit ], [ %48, %.sink.split ]
  tail call void @free(ptr noundef nonnull %9) #24
  br label %88

88:                                               ; preds = %Abc_TtFindFirstBit2.exit, %87
  %.0.lcssa.i4550 = phi i32 [ 0, %Abc_TtFindFirstBit2.exit ], [ %.0.lcssa.i4549, %87 ]
  ret i32 %.0.lcssa.i4550
}